; Function Attrs: nounwind uwtable
define i32 @ff_hevc_annexb2mp4(ptr noundef %0, ptr noundef %1, i32 noundef %2, i32 noundef %3, ptr noundef writeonly captures(address_is_null) %4) local_unnamed_addr #0 {
  %6 = alloca i32, align 4
  %7 = alloca ptr, align 8
  store i32 %2, ptr %6, align 4, !tbaa !4
  call void @llvm.lifetime.start.p0(i64 8, ptr nonnull %7) #6
  store ptr null, ptr %7, align 8, !tbaa !8
  %.not = icmp eq i32 %3, 0
  br i1 %.not, label %8, label %10

8:                                                ; preds = %5
  %9 = tail call i32 @ff_nal_parse_units(ptr noundef %0, ptr noundef %1, i32 noundef %2) #6
  br label %.loopexit

10:                                               ; preds = %5
  %11 = call i32 @ff_nal_parse_units_buf(ptr noundef %1, ptr noundef nonnull %7, ptr noundef nonnull %6) #6
  %12 = icmp slt i32 %11, 0
  %.pre43 = load ptr, ptr %7, align 8, !tbaa !8
  br i1 %12, label %.loopexit, label %13

13:                                               ; preds = %10
  %14 = load i32, ptr %6, align 4, !tbaa !4
  %15 = sext i32 %14 to i64
  %16 = getelementptr inbounds i8, ptr %.pre43, i64 %15
  %17 = ptrtoint ptr %16 to i64
  %18 = icmp sgt i32 %14, 4
  br i1 %18, label %.lr.ph, label %.loopexit

.lr.ph:                                           ; preds = %13, %35
  %19 = phi i64 [ %38, %35 ], [ %15, %13 ]
  %.141 = phi i32 [ %.2, %35 ], [ 0, %13 ]
  %.13040 = phi i32 [ %.231, %35 ], [ 0, %13 ]
  %.03239 = phi ptr [ %36, %35 ], [ %.pre43, %13 ]
  %20 = load i32, ptr %.03239, align 1, !tbaa !11
  %21 = call i32 @llvm.bswap.i32(i32 %20)
  %22 = zext i32 %21 to i64
  %23 = add nsw i64 %19, -4
  %24 = call i64 @llvm.umin.i64(i64 %23, i64 %22)
  %25 = getelementptr inbounds nuw i8, ptr %.03239, i64 4
  %26 = load i8, ptr %25, align 1, !tbaa !11
  %27 = lshr i8 %26, 1
  %28 = and i8 %27, 63
  %.off = add nsw i8 %28, -32
  %switch = icmp ult i8 %.off, 3
  br i1 %switch, label %29, label %31

29:                                               ; preds = %.lr.ph
  %30 = add nsw i32 %.141, 1
  br label %35

31:                                               ; preds = %.lr.ph
  %32 = trunc nuw i64 %24 to i32
  %33 = add i32 %.13040, 4
  %34 = add i32 %33, %32
  call void @avio_wb32(ptr noundef %0, i32 noundef %32) #6
  call void @avio_write(ptr noundef %0, ptr noundef nonnull %25, i32 noundef %32) #6
  br label %35

35:                                               ; preds = %31, %29
  %.231 = phi i32 [ %34, %31 ], [ %.13040, %29 ]
  %.2 = phi i32 [ %.141, %31 ], [ %30, %29 ]
  %36 = getelementptr inbounds nuw i8, ptr %25, i64 %24
  %37 = ptrtoint ptr %36 to i64
  %38 = sub i64 %17, %37
  %39 = icmp sgt i64 %38, 4
  br i1 %39, label %.lr.ph, label %.loopexit.loopexit, !llvm.loop !12

.loopexit.loopexit:                               ; preds = %35
  %.pre = load ptr, ptr %7, align 8, !tbaa !8
  br label %.loopexit

.loopexit:                                        ; preds = %.loopexit.loopexit, %13, %10, %8
  %40 = phi ptr [ %.pre43, %10 ], [ null, %8 ], [ %.pre43, %13 ], [ %.pre, %.loopexit.loopexit ]
  %.029 = phi i32 [ %11, %10 ], [ %9, %8 ], [ 0, %13 ], [ %.231, %.loopexit.loopexit ]
  %.0 = phi i32 [ 0, %10 ], [ 0, %8 ], [ 0, %13 ], [ %.2, %.loopexit.loopexit ]
  call void @av_free(ptr noundef %40) #6
  %.not38 = icmp eq ptr %4, null
  br i1 %.not38, label %42, label %41

41:                                               ; preds = %.loopexit
  store i32 %.0, ptr %4, align 4, !tbaa !4
  br label %42

42:                                               ; preds = %41, %.loopexit
  call void @llvm.lifetime.end.p0(i64 8, ptr nonnull %7) #6
  ret i32 %.029
}